target datalayout = "e-m:e-p270:32:32-p271:32:32-p272:64:64-i64:64-i128:128-f80:128-n8:16:32:64-S128"
target triple = "x86_64-pc-linux-gnu"

%"class.casadi::SharedObjectInternal" = type { ptr, i64, ptr }

; Function Attrs: mustprogress uwtable
define noundef ptr @_ZN6casadi20SharedObjectInternal4weakEv(ptr noundef nonnull align 8 dereferenceable(24) %0) #8 align 2 personality ptr @__gxx_personality_v0 {
  %2 = alloca ptr, align 8
  %3 = alloca ptr, align 8
  %4 = alloca i32, align 4
  store ptr %0, ptr %2, align 8
  %5 = load ptr, ptr %2, align 8
  %6 = getelementptr inbounds %"class.casadi::SharedObjectInternal", ptr %5, i32 0, i32 2
  %7 = load ptr, ptr %6, align 8
  %8 = icmp eq ptr %7, null
  br i1 %8, label %9, label %17

9:                                                ; preds = %1
  %10 = call noalias noundef nonnull ptr @_Znwm(i64 noundef 8) #13
  invoke void @_ZN6casadi7WeakRefC1EPNS_20SharedObjectInternalE(ptr noundef nonnull align 8 dereferenceable(8) %10, ptr noundef %5)
          to label %11 unwind label %13

11:                                               ; preds = %9
  %12 = getelementptr inbounds %"class.casadi::SharedObjectInternal", ptr %5, i32 0, i32 2
  store ptr %10, ptr %12, align 8
  br label %17

13:                                               ; preds = %9
  %14 = landingpad { ptr, i32 }
          cleanup
  %15 = extractvalue { ptr, i32 } %14, 0
  store ptr %15, ptr %3, align 8
  %16 = extractvalue { ptr, i32 } %14, 1
  store i32 %16, ptr %4, align 4
  call void @_ZdlPv(ptr noundef %10) #11
  br label %20

17:                                               ; preds = %11, %1
  %18 = getelementptr inbounds %"class.casadi::SharedObjectInternal", ptr %5, i32 0, i32 2
  %19 = load ptr, ptr %18, align 8
  ret ptr %19

20:                                               ; preds = %13
  %21 = load ptr, ptr %3, align 8
  %22 = load i32, ptr %4, align 4
  %23 = insertvalue { ptr, i32 } poison, ptr %21, 0
  %24 = insertvalue { ptr, i32 } %23, i32 %22, 1
  resume { ptr, i32 } %24
}