; Function Attrs: mustprogress uwtable
define noundef nonnull ptr @_ZN6casadi20SharedObjectInternal4weakEv(ptr noundef nonnull align 8 dereferenceable(24) %0) local_unnamed_addr #11 align 2 personality ptr @__gxx_personality_v0 {
  %2 = getelementptr inbounds i8, ptr %0, i64 16
  %3 = load ptr, ptr %2, align 8
  %4 = icmp eq ptr %3, null
  br i1 %4, label %5, label %10

5:                                                ; preds = %1
  %6 = tail call noalias noundef nonnull dereferenceable(8) ptr @_Znwm(i64 noundef 8) #18
  invoke void @_ZN6casadi7WeakRefC1EPNS_20SharedObjectInternalE(ptr noundef nonnull align 8 dereferenceable(8) %6, ptr noundef nonnull %0)
          to label %7 unwind label %8

7:                                                ; preds = %5
  store ptr %6, ptr %2, align 8
  br label %10

8:                                                ; preds = %5
  %9 = landingpad { ptr, i32 }
          cleanup
  tail call void @_ZdlPv(ptr noundef nonnull %6) #16
  resume { ptr, i32 } %9

10:                                               ; preds = %7, %1
  %11 = phi ptr [ %6, %7 ], [ %3, %1 ]
  ret ptr %11
}